target datalayout = "e-m:e-p270:32:32-p271:32:32-p272:64:64-i64:64-i128:128-f80:128-n8:16:32:64-S128"
target triple = "x86_64-pc-linux-gnu"

%struct.ggml_backend_buffer = type { %struct.ggml_backend_buffer_i, ptr, ptr, i64, i32 }
%struct.ggml_backend_buffer_i = type { ptr, ptr, ptr, ptr, ptr, ptr, ptr, ptr, ptr }

; Function Attrs: mustprogress uwtable
define internal noundef ptr @_ZL49ggml_backend_cpu_aarch64_buffer_type_alloc_bufferP24ggml_backend_buffer_typem(ptr noundef %0, i64 noundef %1) #0 {
  %3 = alloca ptr, align 8
  %4 = alloca ptr, align 8
  %5 = alloca i64, align 8
  %6 = alloca ptr, align 8
  %7 = alloca i32, align 4
  store ptr %0, ptr %4, align 8, !tbaa !246
  store i64 %1, ptr %5, align 8, !tbaa !10
  call void @llvm.lifetime.start.p0(i64 8, ptr %6) #23
  %8 = call ptr @ggml_backend_cpu_buffer_type()
  %9 = load i64, ptr %5, align 8, !tbaa !10
  %10 = call ptr @ggml_backend_buft_alloc_buffer(ptr noundef %8, i64 noundef %9)
  store ptr %10, ptr %6, align 8, !tbaa !248
  %11 = load ptr, ptr %6, align 8, !tbaa !248
  %12 = icmp eq ptr %11, null
  br i1 %12, label %13, label %14

13:                                               ; preds = %2
  store ptr null, ptr %3, align 8
  store i32 1, ptr %7, align 4
  br label %31

14:                                               ; preds = %2
  %15 = load ptr, ptr %4, align 8, !tbaa !246
  %16 = load ptr, ptr %6, align 8, !tbaa !248
  %17 = getelementptr inbounds nuw %struct.ggml_backend_buffer, ptr %16, i32 0, i32 1
  store ptr %15, ptr %17, align 8, !tbaa !249
  %18 = load ptr, ptr %6, align 8, !tbaa !248
  %19 = getelementptr inbounds nuw %struct.ggml_backend_buffer, ptr %18, i32 0, i32 0
  %20 = getelementptr inbounds nuw %struct.ggml_backend_buffer_i, ptr %19, i32 0, i32 2
  store ptr @_ZL43ggml_backend_cpu_aarch64_buffer_init_tensorP19ggml_backend_bufferP11ggml_tensor, ptr %20, align 8, !tbaa !253
  %21 = load ptr, ptr %6, align 8, !tbaa !248
  %22 = getelementptr inbounds nuw %struct.ggml_backend_buffer, ptr %21, i32 0, i32 0
  %23 = getelementptr inbounds nuw %struct.ggml_backend_buffer_i, ptr %22, i32 0, i32 4
  store ptr @_ZL42ggml_backend_cpu_aarch64_buffer_set_tensorP19ggml_backend_bufferP11ggml_tensorPKvmm, ptr %23, align 8, !tbaa !254
  %24 = load ptr, ptr %6, align 8, !tbaa !248
  %25 = getelementptr inbounds nuw %struct.ggml_backend_buffer, ptr %24, i32 0, i32 0
  %26 = getelementptr inbounds nuw %struct.ggml_backend_buffer_i, ptr %25, i32 0, i32 5
  store ptr null, ptr %26, align 8, !tbaa !255
  %27 = load ptr, ptr %6, align 8, !tbaa !248
  %28 = getelementptr inbounds nuw %struct.ggml_backend_buffer, ptr %27, i32 0, i32 0
  %29 = getelementptr inbounds nuw %struct.ggml_backend_buffer_i, ptr %28, i32 0, i32 6
  store ptr null, ptr %29, align 8, !tbaa !256
  %30 = load ptr, ptr %6, align 8, !tbaa !248
  store ptr %30, ptr %3, align 8
  store i32 1, ptr %7, align 4
  br label %31

31:                                               ; preds = %14, %13
  call void @llvm.lifetime.end.p0(i64 8, ptr %6) #23
  %32 = load ptr, ptr %3, align 8
  ret ptr %32
}