; Function Attrs: mustprogress uwtable
define internal noundef ptr @_ZL49ggml_backend_cpu_aarch64_buffer_type_alloc_bufferP24ggml_backend_buffer_typem(ptr noundef %0, i64 noundef %1) #0 {
  %3 = tail call ptr @ggml_backend_cpu_buffer_type()
  %4 = tail call ptr @ggml_backend_buft_alloc_buffer(ptr noundef %3, i64 noundef %1)
  %5 = icmp eq ptr %4, null
  br i1 %5, label %11, label %6

6:                                                ; preds = %2
  %7 = getelementptr inbounds nuw i8, ptr %4, i64 72
  store ptr %0, ptr %7, align 8, !tbaa !398
  %8 = getelementptr inbounds nuw i8, ptr %4, i64 16
  store ptr @_ZL43ggml_backend_cpu_aarch64_buffer_init_tensorP19ggml_backend_bufferP11ggml_tensor, ptr %8, align 8, !tbaa !403
  %9 = getelementptr inbounds nuw i8, ptr %4, i64 32
  store ptr @_ZL42ggml_backend_cpu_aarch64_buffer_set_tensorP19ggml_backend_bufferP11ggml_tensorPKvmm, ptr %9, align 8, !tbaa !404
  %10 = getelementptr inbounds nuw i8, ptr %4, i64 40
  tail call void @llvm.memset.p0.i64(ptr noundef nonnull align 8 dereferenceable(16) %10, i8 0, i64 16, i1 false)
  br label %11

11:                                               ; preds = %2, %6
  ret ptr %4
}